; ModuleID = '11/75.c'
source_filename = "11/75.c"
target datalayout = "e-m:e-p270:32:32-p271:32:32-p272:64:64-i64:64-f80:128-n8:16:32:64-S128"
target triple = "x86_64-pc-linux-gnu"

@.str = private unnamed_addr constant [9 x i8] c"%d %d %d\00", align 1
@__const.main.days1 = private unnamed_addr constant [13 x i32] [i32 0, i32 31, i32 28, i32 31, i32 30, i32 31, i32 30, i32 31, i32 31, i32 30, i32 31, i32 30, i32 31], align 16
@__const.main.days2 = private unnamed_addr constant [13 x i32] [i32 0, i32 31, i32 29, i32 31, i32 30, i32 31, i32 30, i32 31, i32 31, i32 30, i32 31, i32 30, i32 31], align 16
@.str.1 = private unnamed_addr constant [3 x i8] c"%d\00", align 1

; Function Attrs: noinline nounwind uwtable
define dso_local i32 @main() #0 {
  %1 = alloca i32, align 4
  %2 = alloca i32, align 4
  %3 = alloca i32, align 4
  %4 = alloca i32, align 4
  %5 = alloca i32, align 4
  %6 = alloca i32, align 4
  %7 = alloca [13 x i32], align 16
  %8 = alloca [13 x i32], align 16
  store i32 0, i32* %1, align 4
  %9 = call i32 (i8*, ...) @__isoc99_scanf(i8* getelementptr inbounds ([9 x i8], [9 x i8]* @.str, i64 0, i64 0), i32* %2, i32* %3, i32* %4)
  store i32 0, i32* %5, align 4
  %10 = bitcast [13 x i32]* %7 to i8*
  call void @llvm.memcpy.p0i8.p0i8.i64(i8* align 16 %10, i8* align 16 bitcast ([13 x i32]* @__const.main.days1 to i8*), i64 52, i1 false)
  %11 = bitcast [13 x i32]* %8 to i8*
  call void @llvm.memcpy.p0i8.p0i8.i64(i8* align 16 %11, i8* align 16 bitcast ([13 x i32]* @__const.main.days2 to i8*), i64 52, i1 false)
  %12 = load i32, i32* %2, align 4
  %13 = srem i32 %12, 4
  %14 = icmp eq i32 %13, 0
  br i1 %14, label %15, label %19

15:                                               ; preds = %0
  %16 = load i32, i32* %2, align 4
  %17 = srem i32 %16, 100
  %18 = icmp ne i32 %17, 0
  br i1 %18, label %23, label %19

19:                                               ; preds = %15, %0
  %20 = load i32, i32* %2, align 4
  %21 = srem i32 %20, 400
  %22 = icmp eq i32 %21, 0
  br i1 %22, label %23, label %42

23:                                               ; preds = %19, %15
  store i32 0, i32* %6, align 4
  br label %24

24:                                               ; preds = %35, %23
  %25 = load i32, i32* %6, align 4
  %26 = load i32, i32* %3, align 4
  %27 = icmp slt i32 %25, %26
  br i1 %27, label %28, label %38

28:                                               ; preds = %24
  %29 = load i32, i32* %5, align 4
  %30 = load i32, i32* %6, align 4
  %31 = sext i32 %30 to i64
  %32 = getelementptr inbounds [13 x i32], [13 x i32]* %7, i64 0, i64 %31
  %33 = load i32, i32* %32, align 4
  %34 = add nsw i32 %29, %33
  store i32 %34, i32* %5, align 4
  br label %35

35:                                               ; preds = %28
  %36 = load i32, i32* %6, align 4
  %37 = add nsw i32 %36, 1
  store i32 %37, i32* %6, align 4
  br label %24

38:                                               ; preds = %24
  %39 = load i32, i32* %5, align 4
  %40 = load i32, i32* %4, align 4
  %41 = add nsw i32 %39, %40
  store i32 %41, i32* %5, align 4
  br label %61

42:                                               ; preds = %19
  store i32 0, i32* %6, align 4
  br label %43

43:                                               ; preds = %54, %42
  %44 = load i32, i32* %6, align 4
  %45 = load i32, i32* %3, align 4
  %46 = icmp slt i32 %44, %45
  br i1 %46, label %47, label %57

47:                                               ; preds = %43
  %48 = load i32, i32* %5, align 4
  %49 = load i32, i32* %6, align 4
  %50 = sext i32 %49 to i64
  %51 = getelementptr inbounds [13 x i32], [13 x i32]* %8, i64 0, i64 %50
  %52 = load i32, i32* %51, align 4
  %53 = add nsw i32 %48, %52
  store i32 %53, i32* %5, align 4
  br label %54

54:                                               ; preds = %47
  %55 = load i32, i32* %6, align 4
  %56 = add nsw i32 %55, 1
  store i32 %56, i32* %6, align 4
  br label %43

57:                                               ; preds = %43
  %58 = load i32, i32* %5, align 4
  %59 = load i32, i32* %4, align 4
  %60 = add nsw i32 %58, %59
  store i32 %60, i32* %5, align 4
  br label %61

61:                                               ; preds = %57, %38
  %62 = load i32, i32* %5, align 4
  %63 = sub nsw i32 %62, 1
  store i32 %63, i32* %5, align 4
  %64 = load i32, i32* %5, align 4
  %65 = call i32 (i8*, ...) @printf(i8* getelementptr inbounds ([3 x i8], [3 x i8]* @.str.1, i64 0, i64 0), i32 %64)
  %66 = load i32, i32* %1, align 4
  ret i32 %66
}

declare dso_local i32 @__isoc99_scanf(i8*, ...) #1

; Function Attrs: argmemonly nounwind willreturn
declare void @llvm.memcpy.p0i8.p0i8.i64(i8* noalias nocapture writeonly, i8* noalias nocapture readonly, i64, i1 immarg) #2

declare dso_local i32 @printf(i8*, ...) #1


!llvm.module.flags = !{!0}
!llvm.ident = !{!1}

!0 = !{i32 1, !"wchar_size", i32 4}
!1 = !{!"clang version 10.0.0-4ubuntu1 "}
